target datalayout = "e-m:e-p270:32:32-p271:32:32-p272:64:64-i64:64-i128:128-f80:128-n8:16:32:64-S128"
target triple = "x86_64-pc-linux-gnu"

%struct.SHAstate_st = type { i32, i32, i32, i32, i32, i32, i32, [16 x i32], i32 }

; Function Attrs: nounwind uwtable
define internal void @tls1_sha1_final_raw(ptr noundef %0, ptr noundef %1) #0 {
  %3 = alloca ptr, align 8
  %4 = alloca ptr, align 8
  %5 = alloca ptr, align 8
  store ptr %0, ptr %3, align 8, !tbaa !19
  store ptr %1, ptr %4, align 8, !tbaa !8
  call void @llvm.lifetime.start.p0(i64 8, ptr %5) #7
  %6 = load ptr, ptr %3, align 8, !tbaa !19
  store ptr %6, ptr %5, align 8, !tbaa !35
  %7 = load ptr, ptr %5, align 8, !tbaa !35
  %8 = getelementptr inbounds nuw %struct.SHAstate_st, ptr %7, i32 0, i32 0
  %9 = load i32, ptr %8, align 4, !tbaa !37
  %10 = lshr i32 %9, 24
  %11 = and i32 %10, 255
  %12 = trunc i32 %11 to i8
  %13 = load ptr, ptr %4, align 8, !tbaa !8
  %14 = getelementptr inbounds nuw i8, ptr %13, i32 1
  store ptr %14, ptr %4, align 8, !tbaa !8
  store i8 %12, ptr %13, align 1, !tbaa !14
  %15 = load ptr, ptr %5, align 8, !tbaa !35
  %16 = getelementptr inbounds nuw %struct.SHAstate_st, ptr %15, i32 0, i32 0
  %17 = load i32, ptr %16, align 4, !tbaa !37
  %18 = lshr i32 %17, 16
  %19 = and i32 %18, 255
  %20 = trunc i32 %19 to i8
  %21 = load ptr, ptr %4, align 8, !tbaa !8
  %22 = getelementptr inbounds nuw i8, ptr %21, i32 1
  store ptr %22, ptr %4, align 8, !tbaa !8
  store i8 %20, ptr %21, align 1, !tbaa !14
  %23 = load ptr, ptr %5, align 8, !tbaa !35
  %24 = getelementptr inbounds nuw %struct.SHAstate_st, ptr %23, i32 0, i32 0
  %25 = load i32, ptr %24, align 4, !tbaa !37
  %26 = lshr i32 %25, 8
  %27 = and i32 %26, 255
  %28 = trunc i32 %27 to i8
  %29 = load ptr, ptr %4, align 8, !tbaa !8
  %30 = getelementptr inbounds nuw i8, ptr %29, i32 1
  store ptr %30, ptr %4, align 8, !tbaa !8
  store i8 %28, ptr %29, align 1, !tbaa !14
  %31 = load ptr, ptr %5, align 8, !tbaa !35
  %32 = getelementptr inbounds nuw %struct.SHAstate_st, ptr %31, i32 0, i32 0
  %33 = load i32, ptr %32, align 4, !tbaa !37
  %34 = and i32 %33, 255
  %35 = trunc i32 %34 to i8
  %36 = load ptr, ptr %4, align 8, !tbaa !8
  %37 = getelementptr inbounds nuw i8, ptr %36, i32 1
  store ptr %37, ptr %4, align 8, !tbaa !8
  store i8 %35, ptr %36, align 1, !tbaa !14
  %38 = load ptr, ptr %5, align 8, !tbaa !35
  %39 = getelementptr inbounds nuw %struct.SHAstate_st, ptr %38, i32 0, i32 1
  %40 = load i32, ptr %39, align 4, !tbaa !39
  %41 = lshr i32 %40, 24
  %42 = and i32 %41, 255
  %43 = trunc i32 %42 to i8
  %44 = load ptr, ptr %4, align 8, !tbaa !8
  %45 = getelementptr inbounds nuw i8, ptr %44, i32 1
  store ptr %45, ptr %4, align 8, !tbaa !8
  store i8 %43, ptr %44, align 1, !tbaa !14
  %46 = load ptr, ptr %5, align 8, !tbaa !35
  %47 = getelementptr inbounds nuw %struct.SHAstate_st, ptr %46, i32 0, i32 1
  %48 = load i32, ptr %47, align 4, !tbaa !39
  %49 = lshr i32 %48, 16
  %50 = and i32 %49, 255
  %51 = trunc i32 %50 to i8
  %52 = load ptr, ptr %4, align 8, !tbaa !8
  %53 = getelementptr inbounds nuw i8, ptr %52, i32 1
  store ptr %53, ptr %4, align 8, !tbaa !8
  store i8 %51, ptr %52, align 1, !tbaa !14
  %54 = load ptr, ptr %5, align 8, !tbaa !35
  %55 = getelementptr inbounds nuw %struct.SHAstate_st, ptr %54, i32 0, i32 1
  %56 = load i32, ptr %55, align 4, !tbaa !39
  %57 = lshr i32 %56, 8
  %58 = and i32 %57, 255
  %59 = trunc i32 %58 to i8
  %60 = load ptr, ptr %4, align 8, !tbaa !8
  %61 = getelementptr inbounds nuw i8, ptr %60, i32 1
  store ptr %61, ptr %4, align 8, !tbaa !8
  store i8 %59, ptr %60, align 1, !tbaa !14
  %62 = load ptr, ptr %5, align 8, !tbaa !35
  %63 = getelementptr inbounds nuw %struct.SHAstate_st, ptr %62, i32 0, i32 1
  %64 = load i32, ptr %63, align 4, !tbaa !39
  %65 = and i32 %64, 255
  %66 = trunc i32 %65 to i8
  %67 = load ptr, ptr %4, align 8, !tbaa !8
  %68 = getelementptr inbounds nuw i8, ptr %67, i32 1
  store ptr %68, ptr %4, align 8, !tbaa !8
  store i8 %66, ptr %67, align 1, !tbaa !14
  %69 = load ptr, ptr %5, align 8, !tbaa !35
  %70 = getelementptr inbounds nuw %struct.SHAstate_st, ptr %69, i32 0, i32 2
  %71 = load i32, ptr %70, align 4, !tbaa !40
  %72 = lshr i32 %71, 24
  %73 = and i32 %72, 255
  %74 = trunc i32 %73 to i8
  %75 = load ptr, ptr %4, align 8, !tbaa !8
  %76 = getelementptr inbounds nuw i8, ptr %75, i32 1
  store ptr %76, ptr %4, align 8, !tbaa !8
  store i8 %74, ptr %75, align 1, !tbaa !14
  %77 = load ptr, ptr %5, align 8, !tbaa !35
  %78 = getelementptr inbounds nuw %struct.SHAstate_st, ptr %77, i32 0, i32 2
  %79 = load i32, ptr %78, align 4, !tbaa !40
  %80 = lshr i32 %79, 16
  %81 = and i32 %80, 255
  %82 = trunc i32 %81 to i8
  %83 = load ptr, ptr %4, align 8, !tbaa !8
  %84 = getelementptr inbounds nuw i8, ptr %83, i32 1
  store ptr %84, ptr %4, align 8, !tbaa !8
  store i8 %82, ptr %83, align 1, !tbaa !14
  %85 = load ptr, ptr %5, align 8, !tbaa !35
  %86 = getelementptr inbounds nuw %struct.SHAstate_st, ptr %85, i32 0, i32 2
  %87 = load i32, ptr %86, align 4, !tbaa !40
  %88 = lshr i32 %87, 8
  %89 = and i32 %88, 255
  %90 = trunc i32 %89 to i8
  %91 = load ptr, ptr %4, align 8, !tbaa !8
  %92 = getelementptr inbounds nuw i8, ptr %91, i32 1
  store ptr %92, ptr %4, align 8, !tbaa !8
  store i8 %90, ptr %91, align 1, !tbaa !14
  %93 = load ptr, ptr %5, align 8, !tbaa !35
  %94 = getelementptr inbounds nuw %struct.SHAstate_st, ptr %93, i32 0, i32 2
  %95 = load i32, ptr %94, align 4, !tbaa !40
  %96 = and i32 %95, 255
  %97 = trunc i32 %96 to i8
  %98 = load ptr, ptr %4, align 8, !tbaa !8
  %99 = getelementptr inbounds nuw i8, ptr %98, i32 1
  store ptr %99, ptr %4, align 8, !tbaa !8
  store i8 %97, ptr %98, align 1, !tbaa !14
  %100 = load ptr, ptr %5, align 8, !tbaa !35
  %101 = getelementptr inbounds nuw %struct.SHAstate_st, ptr %100, i32 0, i32 3
  %102 = load i32, ptr %101, align 4, !tbaa !41
  %103 = lshr i32 %102, 24
  %104 = and i32 %103, 255
  %105 = trunc i32 %104 to i8
  %106 = load ptr, ptr %4, align 8, !tbaa !8
  %107 = getelementptr inbounds nuw i8, ptr %106, i32 1
  store ptr %107, ptr %4, align 8, !tbaa !8
  store i8 %105, ptr %106, align 1, !tbaa !14
  %108 = load ptr, ptr %5, align 8, !tbaa !35
  %109 = getelementptr inbounds nuw %struct.SHAstate_st, ptr %108, i32 0, i32 3
  %110 = load i32, ptr %109, align 4, !tbaa !41
  %111 = lshr i32 %110, 16
  %112 = and i32 %111, 255
  %113 = trunc i32 %112 to i8
  %114 = load ptr, ptr %4, align 8, !tbaa !8
  %115 = getelementptr inbounds nuw i8, ptr %114, i32 1
  store ptr %115, ptr %4, align 8, !tbaa !8
  store i8 %113, ptr %114, align 1, !tbaa !14
  %116 = load ptr, ptr %5, align 8, !tbaa !35
  %117 = getelementptr inbounds nuw %struct.SHAstate_st, ptr %116, i32 0, i32 3
  %118 = load i32, ptr %117, align 4, !tbaa !41
  %119 = lshr i32 %118, 8
  %120 = and i32 %119, 255
  %121 = trunc i32 %120 to i8
  %122 = load ptr, ptr %4, align 8, !tbaa !8
  %123 = getelementptr inbounds nuw i8, ptr %122, i32 1
  store ptr %123, ptr %4, align 8, !tbaa !8
  store i8 %121, ptr %122, align 1, !tbaa !14
  %124 = load ptr, ptr %5, align 8, !tbaa !35
  %125 = getelementptr inbounds nuw %struct.SHAstate_st, ptr %124, i32 0, i32 3
  %126 = load i32, ptr %125, align 4, !tbaa !41
  %127 = and i32 %126, 255
  %128 = trunc i32 %127 to i8
  %129 = load ptr, ptr %4, align 8, !tbaa !8
  %130 = getelementptr inbounds nuw i8, ptr %129, i32 1
  store ptr %130, ptr %4, align 8, !tbaa !8
  store i8 %128, ptr %129, align 1, !tbaa !14
  %131 = load ptr, ptr %5, align 8, !tbaa !35
  %132 = getelementptr inbounds nuw %struct.SHAstate_st, ptr %131, i32 0, i32 4
  %133 = load i32, ptr %132, align 4, !tbaa !42
  %134 = lshr i32 %133, 24
  %135 = and i32 %134, 255
  %136 = trunc i32 %135 to i8
  %137 = load ptr, ptr %4, align 8, !tbaa !8
  %138 = getelementptr inbounds nuw i8, ptr %137, i32 1
  store ptr %138, ptr %4, align 8, !tbaa !8
  store i8 %136, ptr %137, align 1, !tbaa !14
  %139 = load ptr, ptr %5, align 8, !tbaa !35
  %140 = getelementptr inbounds nuw %struct.SHAstate_st, ptr %139, i32 0, i32 4
  %141 = load i32, ptr %140, align 4, !tbaa !42
  %142 = lshr i32 %141, 16
  %143 = and i32 %142, 255
  %144 = trunc i32 %143 to i8
  %145 = load ptr, ptr %4, align 8, !tbaa !8
  %146 = getelementptr inbounds nuw i8, ptr %145, i32 1
  store ptr %146, ptr %4, align 8, !tbaa !8
  store i8 %144, ptr %145, align 1, !tbaa !14
  %147 = load ptr, ptr %5, align 8, !tbaa !35
  %148 = getelementptr inbounds nuw %struct.SHAstate_st, ptr %147, i32 0, i32 4
  %149 = load i32, ptr %148, align 4, !tbaa !42
  %150 = lshr i32 %149, 8
  %151 = and i32 %150, 255
  %152 = trunc i32 %151 to i8
  %153 = load ptr, ptr %4, align 8, !tbaa !8
  %154 = getelementptr inbounds nuw i8, ptr %153, i32 1
  store ptr %154, ptr %4, align 8, !tbaa !8
  store i8 %152, ptr %153, align 1, !tbaa !14
  %155 = load ptr, ptr %5, align 8, !tbaa !35
  %156 = getelementptr inbounds nuw %struct.SHAstate_st, ptr %155, i32 0, i32 4
  %157 = load i32, ptr %156, align 4, !tbaa !42
  %158 = and i32 %157, 255
  %159 = trunc i32 %158 to i8
  %160 = load ptr, ptr %4, align 8, !tbaa !8
  %161 = getelementptr inbounds nuw i8, ptr %160, i32 1
  store ptr %161, ptr %4, align 8, !tbaa !8
  store i8 %159, ptr %160, align 1, !tbaa !14
  call void @llvm.lifetime.end.p0(i64 8, ptr %5) #7
  ret void
}